; Function Attrs: nounwind uwtable
define noalias noundef ptr @If_ManReverseOrder(ptr noundef readonly captures(none) %0) local_unnamed_addr #1 {
  %2 = getelementptr inbounds nuw i8, ptr %0, i64 84
  %3 = load i32, ptr %2, align 4
  %4 = add nsw i32 %3, 1
  %5 = sext i32 %4 to i64
  %6 = shl nsw i64 %5, 3
  %calloc = tail call ptr @calloc(i64 1, i64 %6)
  %7 = getelementptr inbounds nuw i8, ptr %0, i64 40
  %8 = load ptr, ptr %7, align 8
  %9 = getelementptr i8, ptr %8, i64 4
  %.val31 = load i32, ptr %9, align 4
  %10 = icmp sgt i32 %.val31, 0
  br i1 %10, label %.lr.ph, label %.critedge

.lr.ph:                                           ; preds = %1, %.lr.ph
  %indvars.iv = phi i64 [ %indvars.iv.next, %.lr.ph ], [ 0, %1 ]
  %11 = phi ptr [ %21, %.lr.ph ], [ %8, %1 ]
  %12 = getelementptr i8, ptr %11, i64 8
  %.val29 = load ptr, ptr %12, align 8
  %13 = getelementptr inbounds nuw ptr, ptr %.val29, i64 %indvars.iv
  %14 = load ptr, ptr %13, align 8
  %15 = load i32, ptr %14, align 8
  %16 = lshr i32 %15, 13
  %17 = zext nneg i32 %16 to i64
  %18 = getelementptr inbounds nuw ptr, ptr %calloc, i64 %17
  %19 = load ptr, ptr %18, align 8
  %20 = getelementptr inbounds nuw i8, ptr %14, i64 64
  store ptr %19, ptr %20, align 8
  store ptr %14, ptr %18, align 8
  %indvars.iv.next = add nuw nsw i64 %indvars.iv, 1
  %21 = load ptr, ptr %7, align 8
  %22 = getelementptr i8, ptr %21, i64 4
  %.val = load i32, ptr %22, align 4
  %23 = sext i32 %.val to i64
  %24 = icmp slt i64 %indvars.iv.next, %23
  br i1 %24, label %.lr.ph, label %.critedge, !llvm.loop !13

.critedge:                                        ; preds = %.lr.ph, %1
  %.val.lcssa = phi i32 [ %.val31, %1 ], [ %.val, %.lr.ph ]
  %25 = tail call noalias dereferenceable_or_null(16) ptr @malloc(i64 noundef 16) #11
  %26 = add i32 %.val.lcssa, -1
  %or.cond.i = icmp ult i32 %26, 7
  %spec.store.select.i = select i1 %or.cond.i, i32 8, i32 %.val.lcssa
  %27 = getelementptr inbounds nuw i8, ptr %25, i64 4
  store i32 0, ptr %27, align 4
  store i32 %spec.store.select.i, ptr %25, align 8
  %.not.i = icmp eq i32 %spec.store.select.i, 0
  br i1 %.not.i, label %Vec_PtrAlloc.exit, label %28

28:                                               ; preds = %.critedge
  %29 = sext i32 %spec.store.select.i to i64
  %30 = shl nsw i64 %29, 3
  %31 = tail call noalias ptr @malloc(i64 noundef %30) #11
  br label %Vec_PtrAlloc.exit

Vec_PtrAlloc.exit:                                ; preds = %.critedge, %28
  %32 = phi ptr [ %31, %28 ], [ null, %.critedge ]
  %33 = getelementptr inbounds nuw i8, ptr %25, i64 8
  store ptr %32, ptr %33, align 8
  %34 = load i32, ptr %2, align 4
  %35 = icmp sgt i32 %34, -1
  br i1 %35, label %.lr.ph38.preheader, label %._crit_edge39

.lr.ph38.preheader:                               ; preds = %Vec_PtrAlloc.exit
  %36 = zext nneg i32 %34 to i64
  br label %.lr.ph38

.lr.ph38:                                         ; preds = %.lr.ph38.preheader, %._crit_edge
  %indvars.iv42 = phi i64 [ %36, %.lr.ph38.preheader ], [ %indvars.iv.next43, %._crit_edge ]
  %37 = getelementptr inbounds nuw ptr, ptr %calloc, i64 %indvars.iv42
  %.02633 = load ptr, ptr %37, align 8
  %.not2834 = icmp eq ptr %.02633, null
  br i1 %.not2834, label %._crit_edge, label %.lr.ph36

.lr.ph36:                                         ; preds = %.lr.ph38, %Vec_PtrPush.exit
  %.02635 = phi ptr [ %.026, %Vec_PtrPush.exit ], [ %.02633, %.lr.ph38 ]
  %38 = load i32, ptr %27, align 4
  %39 = load i32, ptr %25, align 8
  %40 = icmp eq i32 %38, %39
  br i1 %40, label %41, label %.Vec_PtrGrow.exit11_crit_edge.i

.Vec_PtrGrow.exit11_crit_edge.i:                  ; preds = %.lr.ph36
  %.pre.i = load ptr, ptr %33, align 8
  br label %Vec_PtrPush.exit

41:                                               ; preds = %.lr.ph36
  %42 = icmp slt i32 %38, 16
  br i1 %42, label %43, label %50

43:                                               ; preds = %41
  %44 = load ptr, ptr %33, align 8
  %.not9.i.i = icmp eq ptr %44, null
  br i1 %.not9.i.i, label %47, label %45

45:                                               ; preds = %43
  %46 = tail call dereferenceable_or_null(128) ptr @realloc(ptr noundef nonnull %44, i64 noundef 128) #12
  br label %Vec_PtrGrow.exit.i

47:                                               ; preds = %43
  %48 = tail call noalias dereferenceable_or_null(128) ptr @malloc(i64 noundef 128) #11
  br label %Vec_PtrGrow.exit.i

Vec_PtrGrow.exit.i:                               ; preds = %47, %45
  %49 = phi ptr [ %46, %45 ], [ %48, %47 ]
  store ptr %49, ptr %33, align 8
  store i32 16, ptr %25, align 8
  br label %Vec_PtrPush.exit

50:                                               ; preds = %41
  %51 = shl nuw nsw i32 %38, 1
  %52 = load ptr, ptr %33, align 8
  %.not9.i10.i = icmp eq ptr %52, null
  %53 = zext nneg i32 %51 to i64
  %54 = shl nuw nsw i64 %53, 3
  br i1 %.not9.i10.i, label %57, label %55

55:                                               ; preds = %50
  %56 = tail call ptr @realloc(ptr noundef nonnull %52, i64 noundef %54) #12
  br label %59

57:                                               ; preds = %50
  %58 = tail call noalias ptr @malloc(i64 noundef %54) #11
  br label %59

59:                                               ; preds = %57, %55
  %60 = phi ptr [ %56, %55 ], [ %58, %57 ]
  store ptr %60, ptr %33, align 8
  store i32 %51, ptr %25, align 8
  br label %Vec_PtrPush.exit

Vec_PtrPush.exit:                                 ; preds = %.Vec_PtrGrow.exit11_crit_edge.i, %Vec_PtrGrow.exit.i, %59
  %61 = phi ptr [ %.pre.i, %.Vec_PtrGrow.exit11_crit_edge.i ], [ %60, %59 ], [ %49, %Vec_PtrGrow.exit.i ]
  %62 = add nsw i32 %38, 1
  store i32 %62, ptr %27, align 4
  %63 = sext i32 %38 to i64
  %64 = getelementptr inbounds ptr, ptr %61, i64 %63
  store ptr %.02635, ptr %64, align 8
  %65 = getelementptr inbounds nuw i8, ptr %.02635, i64 64
  %.026 = load ptr, ptr %65, align 8
  %.not28 = icmp eq ptr %.026, null
  br i1 %.not28, label %._crit_edge, label %.lr.ph36, !llvm.loop !14

._crit_edge:                                      ; preds = %Vec_PtrPush.exit, %.lr.ph38
  %indvars.iv.next43 = add nsw i64 %indvars.iv42, -1
  %66 = icmp sgt i64 %indvars.iv42, 0
  br i1 %66, label %.lr.ph38, label %._crit_edge39, !llvm.loop !15

._crit_edge39:                                    ; preds = %._crit_edge, %Vec_PtrAlloc.exit
  %.not = icmp eq ptr %calloc, null
  br i1 %.not, label %68, label %67

67:                                               ; preds = %._crit_edge39
  tail call void @free(ptr noundef nonnull %calloc) #13
  br label %68

68:                                               ; preds = %._crit_edge39, %67
  ret ptr %25
}